target datalayout = "e-m:e-p270:32:32-p271:32:32-p272:64:64-i64:64-i128:128-f80:128-n8:16:32:64-S128"
target triple = "x86_64-pc-linux-gnu"

%class.Sample_TileMesh = type <{ %class.Sample, i8, i8, [2 x i8], float, ptr, ptr, ptr, ptr, ptr, ptr, %struct.rcConfig, i32, i32, i32, float, i32, [3 x float], [3 x float], float, float, i32, [4 x i8] }>
%class.Sample = type { ptr, ptr, ptr, ptr, ptr, i8, float, float, float, float, float, float, float, float, float, float, float, float, float, i32, i8, i8, i8, ptr, [9 x ptr], ptr, %class.SampleDebugDraw }
%class.SampleDebugDraw = type { %class.DebugDrawGL }
%class.DebugDrawGL = type { %struct.duDebugDraw }
%struct.duDebugDraw = type { ptr }
%struct.rcConfig = type { i32, i32, i32, i32, float, float, [3 x float], [3 x float], float, i32, i32, i32, i32, float, i32, i32, i32, float, float }
%class.InputGeom = type { ptr, ptr, [3 x float], [3 x float], %struct.BuildSettings, i8, [1536 x float], [256 x float], [256 x i8], [256 x i8], [256 x i16], [256 x i32], i32, [256 x %struct.ConvexVolume], i32 }
%struct.BuildSettings = type { float, float, float, float, float, float, float, float, float, float, float, float, float, i32, [3 x float], [3 x float], float }
%struct.ConvexVolume = type { [36 x float], float, float, i32, i32 }

; Function Attrs: mustprogress nounwind uwtable
define linkonce_odr dso_local noundef ptr @_ZNK9InputGeom19getNavMeshBoundsMaxEv(ptr noundef nonnull align 8 dereferenceable(50312) %0) #0 comdat align 2 {
  %2 = alloca ptr, align 8
  store ptr %0, ptr %2, align 8
  %3 = load ptr, ptr %2, align 8
  %4 = getelementptr inbounds %class.InputGeom, ptr %3, i32 0, i32 5
  %5 = load i8, ptr %4, align 4
  %6 = trunc i8 %5 to i1
  br i1 %6, label %7, label %10

7:                                                ; preds = %1
  %8 = getelementptr inbounds %class.InputGeom, ptr %3, i32 0, i32 4
  %9 = getelementptr inbounds %struct.BuildSettings, ptr %8, i32 0, i32 15
  br label %12

10:                                               ; preds = %1
  %11 = getelementptr inbounds %class.InputGeom, ptr %3, i32 0, i32 3
  br label %12

12:                                               ; preds = %10, %7
  %13 = phi ptr [ %9, %7 ], [ %11, %10 ]
  %14 = getelementptr inbounds [3 x float], ptr %13, i64 0, i64 0
  ret ptr %14
}

; Function Attrs: mustprogress nounwind uwtable
define linkonce_odr dso_local noundef ptr @_ZNK9InputGeom19getNavMeshBoundsMinEv(ptr noundef nonnull align 8 dereferenceable(50312) %0) #0 comdat align 2 {
  %2 = alloca ptr, align 8
  store ptr %0, ptr %2, align 8
  %3 = load ptr, ptr %2, align 8
  %4 = getelementptr inbounds %class.InputGeom, ptr %3, i32 0, i32 5
  %5 = load i8, ptr %4, align 4
  %6 = trunc i8 %5 to i1
  br i1 %6, label %7, label %10

7:                                                ; preds = %1
  %8 = getelementptr inbounds %class.InputGeom, ptr %3, i32 0, i32 4
  %9 = getelementptr inbounds %struct.BuildSettings, ptr %8, i32 0, i32 14
  br label %12

10:                                               ; preds = %1
  %11 = getelementptr inbounds %class.InputGeom, ptr %3, i32 0, i32 2
  br label %12

12:                                               ; preds = %10, %7
  %13 = phi ptr [ %9, %7 ], [ %11, %10 ]
  %14 = getelementptr inbounds [3 x float], ptr %13, i64 0, i64 0
  ret ptr %14
}

; Function Attrs: mustprogress uwtable
define dso_local void @_ZN15Sample_TileMesh14removeAllTilesEv(ptr noundef nonnull align 8 dereferenceable(404) %0) #3 align 2 {
  %2 = alloca ptr, align 8
  %3 = alloca ptr, align 8
  %4 = alloca ptr, align 8
  %5 = alloca i32, align 4
  %6 = alloca i32, align 4
  %7 = alloca i32, align 4
  %8 = alloca i32, align 4
  %9 = alloca i32, align 4
  %10 = alloca i32, align 4
  %11 = alloca i32, align 4
  store ptr %0, ptr %2, align 8
  %12 = load ptr, ptr %2, align 8
  %13 = getelementptr inbounds %class.Sample, ptr %12, i32 0, i32 1
  %14 = load ptr, ptr %13, align 8
  %15 = icmp ne ptr %14, null
  br i1 %15, label %16, label %20

16:                                               ; preds = %1
  %17 = getelementptr inbounds %class.Sample, ptr %12, i32 0, i32 2
  %18 = load ptr, ptr %17, align 8
  %19 = icmp ne ptr %18, null
  br i1 %19, label %21, label %20

20:                                               ; preds = %16, %1
  br label %72

21:                                               ; preds = %16
  %22 = getelementptr inbounds %class.Sample, ptr %12, i32 0, i32 1
  %23 = load ptr, ptr %22, align 8
  %24 = call noundef ptr @_ZNK9InputGeom19getNavMeshBoundsMinEv(ptr noundef nonnull align 8 dereferenceable(50312) %23)
  store ptr %24, ptr %3, align 8
  %25 = getelementptr inbounds %class.Sample, ptr %12, i32 0, i32 1
  %26 = load ptr, ptr %25, align 8
  %27 = call noundef ptr @_ZNK9InputGeom19getNavMeshBoundsMaxEv(ptr noundef nonnull align 8 dereferenceable(50312) %26)
  store ptr %27, ptr %4, align 8
  store i32 0, ptr %5, align 4
  store i32 0, ptr %6, align 4
  %28 = load ptr, ptr %3, align 8
  %29 = load ptr, ptr %4, align 8
  %30 = getelementptr inbounds %class.Sample, ptr %12, i32 0, i32 6
  %31 = load float, ptr %30, align 4
  call void @_Z14rcCalcGridSizePKfS0_fPiS1_(ptr noundef %28, ptr noundef %29, float noundef %31, ptr noundef %5, ptr noundef %6)
  %32 = getelementptr inbounds %class.Sample_TileMesh, ptr %12, i32 0, i32 15
  %33 = load float, ptr %32, align 8
  %34 = fptosi float %33 to i32
  store i32 %34, ptr %7, align 4
  %35 = load i32, ptr %5, align 4
  %36 = load i32, ptr %7, align 4
  %37 = add nsw i32 %35, %36
  %38 = sub nsw i32 %37, 1
  %39 = load i32, ptr %7, align 4
  %40 = sdiv i32 %38, %39
  store i32 %40, ptr %8, align 4
  %41 = load i32, ptr %6, align 4
  %42 = load i32, ptr %7, align 4
  %43 = add nsw i32 %41, %42
  %44 = sub nsw i32 %43, 1
  %45 = load i32, ptr %7, align 4
  %46 = sdiv i32 %44, %45
  store i32 %46, ptr %9, align 4
  store i32 0, ptr %10, align 4
  br label %47

47:                                               ; preds = %69, %21
  %48 = load i32, ptr %10, align 4
  %49 = load i32, ptr %9, align 4
  %50 = icmp slt i32 %48, %49
  br i1 %50, label %51, label %72

51:                                               ; preds = %47
  store i32 0, ptr %11, align 4
  br label %52

52:                                               ; preds = %65, %51
  %53 = load i32, ptr %11, align 4
  %54 = load i32, ptr %8, align 4
  %55 = icmp slt i32 %53, %54
  br i1 %55, label %56, label %68

56:                                               ; preds = %52
  %57 = getelementptr inbounds %class.Sample, ptr %12, i32 0, i32 2
  %58 = load ptr, ptr %57, align 8
  %59 = getelementptr inbounds %class.Sample, ptr %12, i32 0, i32 2
  %60 = load ptr, ptr %59, align 8
  %61 = load i32, ptr %11, align 4
  %62 = load i32, ptr %10, align 4
  %63 = call noundef i32 @_ZNK9dtNavMesh12getTileRefAtEiii(ptr noundef nonnull align 8 dereferenceable(100) %60, i32 noundef %61, i32 noundef %62, i32 noundef 0)
  %64 = call noundef i32 @_ZN9dtNavMesh10removeTileEjPPhPi(ptr noundef nonnull align 8 dereferenceable(100) %58, i32 noundef %63, ptr noundef null, ptr noundef null)
  br label %65

65:                                               ; preds = %56
  %66 = load i32, ptr %11, align 4
  %67 = add nsw i32 %66, 1
  store i32 %67, ptr %11, align 4
  br label %52, !llvm.loop !13

68:                                               ; preds = %52
  br label %69

69:                                               ; preds = %68
  %70 = load i32, ptr %10, align 4
  %71 = add nsw i32 %70, 1
  store i32 %71, ptr %10, align 4
  br label %47, !llvm.loop !14

72:                                               ; preds = %47, %20
  ret void
}