; Function Attrs: mustprogress uwtable
define dso_local void @_ZN15Sample_TileMesh14removeAllTilesEv(ptr nocapture noundef nonnull readonly align 8 dereferenceable(404) %0) local_unnamed_addr #3 align 2 {
  %2 = alloca i32, align 4
  %3 = alloca i32, align 4
  %4 = getelementptr inbounds i8, ptr %0, i64 8
  %5 = load ptr, ptr %4, align 8
  %.not = icmp eq ptr %5, null
  br i1 %.not, label %.loopexit, label %6

6:                                                ; preds = %1
  %7 = getelementptr inbounds i8, ptr %0, i64 16
  %8 = load ptr, ptr %7, align 8
  %.not16 = icmp eq ptr %8, null
  br i1 %.not16, label %.loopexit, label %9

9:                                                ; preds = %6
  %10 = getelementptr inbounds i8, ptr %5, i64 124
  %11 = load i8, ptr %10, align 4
  %12 = and i8 %11, 1
  %.not.i = icmp eq i8 %12, 0
  %.v.i = select i1 %.not.i, i64 16, i64 96
  %13 = getelementptr inbounds i8, ptr %5, i64 %.v.i
  %.v.i18 = select i1 %.not.i, i64 28, i64 108
  %14 = getelementptr inbounds i8, ptr %5, i64 %.v.i18
  store i32 0, ptr %2, align 4
  store i32 0, ptr %3, align 4
  %15 = getelementptr inbounds i8, ptr %0, i64 44
  %16 = load float, ptr %15, align 4
  call void @_Z14rcCalcGridSizePKfS0_fPiS1_(ptr noundef nonnull %13, ptr noundef nonnull %14, float noundef %16, ptr noundef nonnull %2, ptr noundef nonnull %3)
  %17 = getelementptr inbounds i8, ptr %0, i64 360
  %18 = load float, ptr %17, align 8
  %19 = fptosi float %18 to i32
  %20 = load i32, ptr %2, align 4
  %21 = add i32 %19, -1
  %22 = add i32 %21, %20
  %23 = sdiv i32 %22, %19
  %24 = load i32, ptr %3, align 4
  %25 = add i32 %21, %24
  %26 = sdiv i32 %25, %19
  %27 = icmp sgt i32 %26, 0
  %28 = icmp sgt i32 %23, 0
  %or.cond = select i1 %27, i1 %28, i1 false
  br i1 %or.cond, label %.preheader.us, label %.loopexit

.preheader.us:                                    ; preds = %9, %._crit_edge.us
  %.01420.us = phi i32 [ %34, %._crit_edge.us ], [ 0, %9 ]
  br label %29

29:                                               ; preds = %.preheader.us, %29
  %.019.us = phi i32 [ 0, %.preheader.us ], [ %33, %29 ]
  %30 = load ptr, ptr %7, align 8
  %31 = call noundef i32 @_ZNK9dtNavMesh12getTileRefAtEiii(ptr noundef nonnull align 8 dereferenceable(100) %30, i32 noundef %.019.us, i32 noundef %.01420.us, i32 noundef 0)
  %32 = call noundef i32 @_ZN9dtNavMesh10removeTileEjPPhPi(ptr noundef nonnull align 8 dereferenceable(100) %30, i32 noundef %31, ptr noundef null, ptr noundef null)
  %33 = add nuw nsw i32 %.019.us, 1
  %exitcond.not = icmp eq i32 %33, %23
  br i1 %exitcond.not, label %._crit_edge.us, label %29, !llvm.loop !12

._crit_edge.us:                                   ; preds = %29
  %34 = add nuw nsw i32 %.01420.us, 1
  %exitcond22.not = icmp eq i32 %34, %26
  br i1 %exitcond22.not, label %.loopexit, label %.preheader.us, !llvm.loop !13

.loopexit:                                        ; preds = %._crit_edge.us, %9, %1, %6
  ret void
}